target datalayout = "e-m:e-p270:32:32-p271:32:32-p272:64:64-i64:64-i128:128-f80:128-n8:16:32:64-S128"
target triple = "x86_64-pc-linux-gnu"

%class.OopHandle = type { ptr }
%class.ZHeap = type <{ %class.ZPageAllocator, %class.ZPageTable, %class.ZAllocatorEden, [15 x %class.ZAllocatorForRelocation], %class.ZServiceability, [8 x i8], %class.ZGenerationOld, %class.ZGenerationYoung, i8, [63 x i8] }>
%class.ZPageAllocator = type <{ %class.ZLock, %class.ZPageCache, %class.ZVirtualMemoryManager, %class.ZPhysicalMemoryManager, i64, i64, i64, i64, i64, i64, i64, [2 x i64], [2 x %struct.anon], %class.ZList.4, ptr, ptr, %class.ZSafeDelete, %class.ZSafePageRecycle, i8, [7 x i8] }>
%class.ZLock = type { %class.PlatformMutex }
%class.PlatformMutex = type { %union.pthread_mutex_t }
%union.pthread_mutex_t = type { %struct.__pthread_mutex_s }
%struct.__pthread_mutex_s = type { i32, i32, i32, i32, i32, i16, i16, %struct.__pthread_internal_list }
%struct.__pthread_internal_list = type { ptr, ptr }
%class.ZPageCache = type { %class.ZValue, %class.ZList, %class.ZList, i64 }
%class.ZValue = type { i64 }
%class.ZList = type { %class.ZListNode, i64 }
%class.ZListNode = type { ptr, ptr }
%class.ZVirtualMemoryManager = type <{ %class.ZMemoryManager, i64, i8, [7 x i8] }>
%class.ZMemoryManager = type { %class.ZLock, %class.ZList.2, %"struct.ZMemoryManager::Callbacks" }
%class.ZList.2 = type { %class.ZListNode.3, i64 }
%class.ZListNode.3 = type { ptr, ptr }
%"struct.ZMemoryManager::Callbacks" = type { ptr, ptr, ptr, ptr, ptr, ptr }
%class.ZPhysicalMemoryManager = type { %class.ZPhysicalMemoryBacking, %class.ZMemoryManager }
%class.ZPhysicalMemoryBacking = type <{ i32, [4 x i8], i64, i64, i64, i64, i8, [7 x i8] }>
%struct.anon = type { i64, i64 }
%class.ZList.4 = type { %class.ZListNode.5, i64 }
%class.ZListNode.5 = type { ptr, ptr }
%class.ZSafeDelete = type { %class.ZActivatedArray }
%class.ZActivatedArray = type { ptr, i64, %class.GrowableArrayCHeap }
%class.GrowableArrayCHeap = type { %class.GrowableArrayWithAllocator }
%class.GrowableArrayWithAllocator = type { %class.GrowableArrayView }
%class.GrowableArrayView = type { %class.GrowableArrayBase, ptr }
%class.GrowableArrayBase = type { i32, i32 }
%class.ZSafePageRecycle = type { ptr, %class.ZActivatedArray }
%class.ZPageTable = type { %class.ZGranuleMap }
%class.ZGranuleMap = type { i64, ptr }
%class.ZAllocatorEden = type { %class.ZAllocator }
%class.ZAllocator = type { %class.ZObjectAllocator }
%class.ZObjectAllocator = type { i8, i8, %class.ZValue.6, %class.ZValue.6, %class.ZValue.7, %class.ZValue.8 }
%class.ZValue.6 = type { i64 }
%class.ZValue.7 = type { i64 }
%class.ZValue.8 = type { i64 }
%class.ZAllocatorForRelocation = type { %class.ZAllocator }
%class.ZServiceability = type { i64, i64, i64, %class.ZServiceabilityMemoryPool, %class.ZServiceabilityMemoryPool, %class.ZServiceabilityMemoryManager, %class.ZServiceabilityMemoryManager, %class.ZServiceabilityMemoryManager, %class.ZServiceabilityMemoryManager, ptr }
%class.ZServiceabilityMemoryPool = type { %class.CollectedMemoryPool.base, i8, [6 x i8] }
%class.CollectedMemoryPool.base = type { %class.MemoryPool.base }
%class.MemoryPool.base = type <{ ptr, ptr, i32, [4 x i8], i64, i64, i8, [7 x i8], [5 x ptr], i32, [4 x i8], %class.MemoryUsage, %class.MemoryUsage, ptr, ptr, ptr, ptr, %class.OopHandle, i8 }>
%class.MemoryUsage = type { i64, i64, i64, i64 }
%class.ZServiceabilityMemoryManager = type { %class.GCMemoryManager.base, i8 }
%class.GCMemoryManager.base = type <{ %class.MemoryManager.base, [7 x i8], i64, %class.elapsedTimer, ptr, ptr, ptr, i32, i8, [10 x i8] }>
%class.MemoryManager.base = type <{ ptr, [10 x ptr], i32, [4 x i8], ptr, %class.OopHandle, i8 }>
%class.elapsedTimer = type <{ i64, i64, i8, [7 x i8] }>
%class.ZGenerationOld = type { %class.ZGeneration, %class.ZReferenceProcessor, %class.ZWeakRootsProcessor, %class.ZUnload, i32, i32, %class.ZOldTracer }
%class.ZGeneration = type { ptr, i8, ptr, ptr, %class.ZForwardingTable, %class.ZWorkers, [24 x i8], %class.ZMark, %class.ZRelocate, %class.ZRelocationSet, i64, i64, i64, i32, i32, %class.ZStatHeap, %class.ZStatCycle, %class.ZStatWorkers, %class.ZStatMark, %class.ZStatRelocation, ptr }
%class.ZForwardingTable = type { %class.ZGranuleMap.10 }
%class.ZGranuleMap.10 = type { i64, ptr }
%class.ZWorkers = type { %class.WorkerThreads, ptr, %class.ZLock, i32, i8, ptr }
%class.WorkerThreads = type { ptr, ptr, ptr, i32, i32, i32, %class.WorkerTaskDispatcher }
%class.WorkerTaskDispatcher = type { ptr, i32, i32, %class.Semaphore, %class.Semaphore }
%class.Semaphore = type { %class.PosixSemaphore }
%class.PosixSemaphore = type { %union.sem_t }
%union.sem_t = type { i64, [24 x i8] }
%class.ZMark = type <{ ptr, ptr, [48 x i8], %class.ZMarkStackAllocator, %class.ZMarkStripeSet, %class.ZMarkTerminate, i64, i64, i64, i64, i64, i64, i32, [36 x i8] }>
%class.ZMarkStackAllocator = type <{ [64 x i8], %class.ZMarkStackSpace, [56 x i8], %class.ZStackList, i8, [63 x i8] }>
%class.ZMarkStackSpace = type <{ %class.ZLock, i64, i64, i64, i8, [7 x i8] }>
%class.ZStackList = type { i64, ptr, [48 x i8] }
%class.ZMarkStripeSet = type { i64, [56 x i8], [16 x %class.ZMarkStripe] }
%class.ZMarkStripe = type { %class.ZStackList.11, %class.ZStackList.11 }
%class.ZStackList.11 = type { i64, ptr, [48 x i8] }
%class.ZMarkTerminate = type { i32, i32, i32, i8, %class.ZConditionLock }
%class.ZConditionLock = type { %class.PlatformMonitor }
%class.PlatformMonitor = type { %class.PlatformMutex, %union.pthread_cond_t }
%union.pthread_cond_t = type { %struct.__pthread_cond_s }
%struct.__pthread_cond_s = type { %union.__atomic_wide_counter, %union.__atomic_wide_counter, [2 x i32], [2 x i32], i32, i32, [2 x i32] }
%union.__atomic_wide_counter = type { i64 }
%class.ZRelocate = type { ptr, %class.ZRelocateQueue }
%class.ZRelocateQueue = type { %class.ZConditionLock, %class.GrowableArrayCHeap.14, i32, i32, i8, i8, i32 }
%class.GrowableArrayCHeap.14 = type { %class.GrowableArrayWithAllocator.15 }
%class.GrowableArrayWithAllocator.15 = type { %class.GrowableArrayView.16 }
%class.GrowableArrayView.16 = type { %class.GrowableArrayBase, ptr }
%class.ZRelocationSet = type { ptr, %class.ZForwardingAllocator, ptr, i64, %class.ZLock, %class.GrowableArrayCHeap, %class.GrowableArrayCHeap }
%class.ZForwardingAllocator = type { ptr, ptr, ptr }
%class.ZStatHeap = type { %class.ZLock, %"struct.ZStatHeap::ZAtGenerationCollectionStart", %"struct.ZStatHeap::ZAtMarkStart", %"struct.ZStatHeap::ZAtMarkEnd", %"struct.ZStatHeap::ZAtRelocateStart", %"struct.ZStatHeap::ZAtRelocateEnd", %class.NumberSeq }
%"struct.ZStatHeap::ZAtGenerationCollectionStart" = type { i64, i64, i64, i64, i64 }
%"struct.ZStatHeap::ZAtMarkStart" = type { i64, i64, i64, i64, i64, i64 }
%"struct.ZStatHeap::ZAtMarkEnd" = type { i64, i64, i64, i64, i64, i64, i64, i64 }
%"struct.ZStatHeap::ZAtRelocateStart" = type { i64, i64, i64, i64, i64, i64, i64, i64, i64, i64, i64 }
%"struct.ZStatHeap::ZAtRelocateEnd" = type { i64, i64, i64, i64, i64, i64, i64, i64, i64, i64, i64, i64, i64, i64, i64, i64, i64 }
%class.NumberSeq = type { %class.AbsSeq, double, double }
%class.AbsSeq = type { ptr, i32, double, double, double, double, double }
%class.ZStatCycle = type { %class.ZLock, i64, %class.TimeInstant, %class.TimeInstant, %class.NumberSeq, %class.NumberSeq, %class.NumberSeq, %class.NumberSeq, double }
%class.TimeInstant = type { %class.CompositeCounterRepresentation }
%class.CompositeCounterRepresentation = type { %class.Representation }
%class.Representation = type { %class.PairRep }
%class.PairRep = type { i64, i64 }
%class.ZStatWorkers = type { %class.ZLock, i32, %class.TimeInstant, %class.TimeInterval, %class.TimeInterval }
%class.TimeInterval = type { %class.CompositeCounterRepresentation }
%class.ZStatMark = type { i64, i64, i64, i64, i64, i64 }
%class.ZStatRelocation = type { %class.ZRelocationSetSelectorStats, i64, i64, i64, i64, i64 }
%class.ZRelocationSetSelectorStats = type { [16 x %class.ZRelocationSetSelectorGroupStats], [16 x %class.ZRelocationSetSelectorGroupStats], [16 x %class.ZRelocationSetSelectorGroupStats], i64 }
%class.ZRelocationSetSelectorGroupStats = type { i64, i64, i64, i64, i64, i64 }
%class.ZReferenceProcessor = type { %class.ReferenceDiscoverer, ptr, ptr, i8, %class.ZValue.17, %class.ZValue.17, %class.ZValue.17, %class.ZValue.18, %class.ZValue.19, i64 }
%class.ReferenceDiscoverer = type { ptr }
%class.ZValue.17 = type { i64 }
%class.ZValue.18 = type { i64 }
%class.ZValue.19 = type { i64 }
%class.ZWeakRootsProcessor = type { ptr }
%class.ZUnload = type { ptr }
%class.ZOldTracer = type { %class.ZGenerationTracer }
%class.ZGenerationTracer = type { ptr, %class.TimeInstant }
%class.ZGenerationYoung = type { %class.ZGeneration, i32, i32, %class.ZRemembered, %class.ZYoungTracer }
%class.ZRemembered = type { ptr, ptr, ptr, %"struct.ZRemembered::FoundOld" }
%"struct.ZRemembered::FoundOld" = type <{ %class.CHeapBitMap, %class.CHeapBitMap, [2 x ptr], i32, [4 x i8] }>
%class.CHeapBitMap = type <{ %class.GrowableBitMap, i8, [7 x i8] }>
%class.GrowableBitMap = type { %class.BitMap }
%class.BitMap = type { ptr, i64 }
%class.ZYoungTracer = type { %class.ZGenerationTracer }
%class.ZPage = type { i8, i8, i8, i8, i32, i32, %class.ZVirtualMemory, i64, %class.ZLiveMap, %class.ZRememberedSet, i64, %class.ZPhysicalMemory, %class.ZListNode }
%class.ZVirtualMemory = type { i64, i64 }
%class.ZLiveMap = type { i32, i32, i64, i64, i64, %class.ZBitMap, i64 }
%class.ZBitMap = type { %class.CHeapBitMap.base, [7 x i8] }
%class.CHeapBitMap.base = type <{ %class.GrowableBitMap, i8 }>
%class.ZRememberedSet = type { [2 x %class.ZMovableBitMap] }
%class.ZMovableBitMap = type { %class.CHeapBitMap.base, [7 x i8] }
%class.ZPhysicalMemory = type { %class.GrowableArrayCHeap.20 }
%class.GrowableArrayCHeap.20 = type { %class.GrowableArrayWithAllocator.21 }
%class.GrowableArrayWithAllocator.21 = type { %class.GrowableArrayView.22 }
%class.GrowableArrayView.22 = type { %class.GrowableArrayBase, ptr }

; Function Attrs: mustprogress nounwind uwtable
define linkonce_odr hidden noundef zeroext i1 @_ZNK5ZPage6is_oldEv(ptr noundef nonnull align 8 dereferenceable(192) %0) #1 comdat align 2 {
  %2 = alloca ptr, align 8
  store ptr %0, ptr %2, align 8
  %3 = load ptr, ptr %2, align 8
  %4 = getelementptr inbounds %class.ZPage, ptr %3, i32 0, i32 1
  %5 = load i8, ptr %4, align 1
  %6 = icmp eq i8 %5, 1
  ret i1 %6
}

; Function Attrs: mustprogress nounwind uwtable
define hidden void @_ZN5ZHeap9free_pageEP5ZPage(ptr noundef nonnull align 64 dereferenceable(15937) %0, ptr noundef %1) #1 align 2 {
  %3 = alloca ptr, align 8
  %4 = alloca ptr, align 8
  store ptr %0, ptr %3, align 8
  store ptr %1, ptr %4, align 8
  %5 = load ptr, ptr %3, align 8
  %6 = getelementptr inbounds %class.ZHeap, ptr %5, i32 0, i32 1
  %7 = load ptr, ptr %4, align 8
  call void @_ZN10ZPageTable6removeEP5ZPage(ptr noundef nonnull align 8 dereferenceable(16) %6, ptr noundef %7)
  %8 = load ptr, ptr %4, align 8
  %9 = call noundef zeroext i1 @_ZNK5ZPage6is_oldEv(ptr noundef nonnull align 8 dereferenceable(192) %8)
  br i1 %9, label %10, label %13

10:                                               ; preds = %2
  %11 = load ptr, ptr %4, align 8
  call void @_ZNK5ZPage29verify_remset_cleared_currentEv(ptr noundef nonnull align 8 dereferenceable(192) %11)
  %12 = load ptr, ptr %4, align 8
  call void @_ZNK5ZPage30verify_remset_cleared_previousEv(ptr noundef nonnull align 8 dereferenceable(192) %12)
  br label %13

13:                                               ; preds = %10, %2
  %14 = getelementptr inbounds %class.ZHeap, ptr %5, i32 0, i32 0
  %15 = load ptr, ptr %4, align 8
  call void @_ZN14ZPageAllocator9free_pageEP5ZPage(ptr noundef nonnull align 8 dereferenceable(609) %14, ptr noundef %15)
  ret void
}