; Function Attrs: mustprogress nounwind uwtable
define hidden void @_ZN5ZHeap9free_pageEP5ZPage(ptr noundef nonnull align 64 dereferenceable(15937) %0, ptr noundef %1) local_unnamed_addr #1 align 2 {
  %3 = getelementptr inbounds i8, ptr %0, i64 616
  tail call void @_ZN10ZPageTable6removeEP5ZPage(ptr noundef nonnull align 8 dereferenceable(16) %3, ptr noundef %1) #10
  %4 = getelementptr inbounds i8, ptr %1, i64 1
  %5 = load i8, ptr %4, align 1
  %6 = icmp eq i8 %5, 1
  br i1 %6, label %7, label %8

7:                                                ; preds = %2
  tail call void @_ZNK5ZPage29verify_remset_cleared_currentEv(ptr noundef nonnull align 8 dereferenceable(192) %1) #10
  tail call void @_ZNK5ZPage30verify_remset_cleared_previousEv(ptr noundef nonnull align 8 dereferenceable(192) %1) #10
  br label %8

8:                                                ; preds = %7, %2
  tail call void @_ZN14ZPageAllocator9free_pageEP5ZPage(ptr noundef nonnull align 8 dereferenceable(609) %0, ptr noundef nonnull %1) #10
  ret void
}